target datalayout = "e-m:e-p270:32:32-p271:32:32-p272:64:64-i64:64-i128:128-f80:128-n8:16:32:64-S128"
target triple = "x86_64-pc-linux-gnu"

%class.QBasicAtomicInteger = type { %"struct.std::atomic" }
%"struct.std::atomic" = type { %"struct.std::__atomic_base" }
%"struct.std::__atomic_base" = type { i32 }
%class.QModelIndex = type { i32, i32, i64, ptr }
%class.QFlags = type { i32 }
%class.QObject = type { ptr, %class.QScopedPointer }
%class.QScopedPointer = type { ptr }
%class.QPaintDevice.base = type <{ ptr, i16 }>
%class.QList.9 = type { %struct.QArrayDataPointer.12 }
%struct.QArrayDataPointer.12 = type { ptr, ptr, i64 }
%class.PacketList = type { %class.QTreeView, ptr, ptr, ptr, ptr, %class.QMenu, %class.QMenu, %class.QMenu, i32, %class.QByteArray, ptr, i32, i8, i8, %class.QList, i8, %class.QModelIndex, %class.RelatedPacketDelegate, ptr, %class.QList.1, i8, i8, i8, i8, i8, %class.QModelIndex, %class.QList.5, %class.QList.9, i32, i8, ptr }
%class.QTreeView = type { %class.QAbstractItemView }
%class.QAbstractItemView = type { %class.QAbstractScrollArea }
%class.QAbstractScrollArea = type { %class.QFrame }
%class.QFrame = type { %class.QWidget }
%class.QWidget = type { %class.QObject, %class.QPaintDevice.base, ptr }
%class.QMenu = type { %class.QWidget }
%class.QByteArray = type { %struct.QArrayDataPointer }
%struct.QArrayDataPointer = type { ptr, ptr, i64 }
%class.QList = type { %struct.QArrayDataPointer.0 }
%struct.QArrayDataPointer.0 = type { ptr, ptr, i64 }
%class.RelatedPacketDelegate = type <{ %class.QStyledItemDelegate, %class.QHash, ptr, i32, [4 x i8] }>
%class.QStyledItemDelegate = type { %class.QAbstractItemDelegate }
%class.QAbstractItemDelegate = type { %class.QObject }
%class.QHash = type { ptr }
%class.QList.1 = type { %struct.QArrayDataPointer.4 }
%struct.QArrayDataPointer.4 = type { ptr, ptr, i64 }
%class.QList.5 = type { %struct.QArrayDataPointer.8 }
%struct.QArrayDataPointer.8 = type { ptr, ptr, i64 }
%class.QFlag = type { i32 }
%struct.QArrayData = type { %class.QBasicAtomicInteger, %class.QFlags.82, i64 }
%class.QFlags.82 = type { i32 }

; Function Attrs: mustprogress nounwind uwtable
define linkonce_odr noundef i32 @_ZNSt13__atomic_baseIiEmmEv(ptr noundef nonnull align 4 dereferenceable(4) %0) #2 comdat align 2 {
  %2 = alloca ptr, align 8
  %3 = alloca i32, align 4
  %4 = alloca i32, align 4
  store ptr %0, ptr %2, align 8
  %5 = load ptr, ptr %2, align 8
  %6 = getelementptr inbounds %"struct.std::__atomic_base", ptr %5, i32 0, i32 0
  store i32 1, ptr %3, align 4
  %7 = load i32, ptr %3, align 4
  %8 = atomicrmw sub ptr %6, i32 %7 seq_cst, align 4
  %9 = sub i32 %8, %7
  store i32 %9, ptr %4, align 4
  %10 = load i32, ptr %4, align 4
  ret i32 %10
}

; Function Attrs: mustprogress nounwind uwtable
define linkonce_odr void @_ZNSt12_Destroy_auxILb1EE9__destroyIP11QModelIndexEEvT_S4_(ptr noundef %0, ptr noundef %1) #2 comdat align 2 {
  %3 = alloca ptr, align 8
  %4 = alloca ptr, align 8
  store ptr %0, ptr %3, align 8
  store ptr %1, ptr %4, align 8
  ret void
}

; Function Attrs: mustprogress nounwind uwtable
define linkonce_odr noundef zeroext i1 @_ZN10QAtomicOpsIiE5derefIiEEbRSt6atomicIT_E(ptr noundef nonnull align 4 dereferenceable(4) %0) #2 comdat align 2 {
  %2 = alloca ptr, align 8
  store ptr %0, ptr %2, align 8
  %3 = load ptr, ptr %2, align 8
  %4 = call noundef i32 @_ZNSt13__atomic_baseIiEmmEv(ptr noundef nonnull align 4 dereferenceable(4) %3) #16
  %5 = icmp ne i32 %4, 0
  ret i1 %5
}

; Function Attrs: mustprogress nounwind uwtable
define linkonce_odr noundef i32 @_ZNK5QFlagcvjEv(ptr noundef nonnull align 4 dereferenceable(4) %0) #2 comdat align 2 {
  %2 = alloca ptr, align 8
  store ptr %0, ptr %2, align 8
  %3 = load ptr, ptr %2, align 8
  %4 = getelementptr inbounds %class.QFlag, ptr %3, i32 0, i32 0
  %5 = load i32, ptr %4, align 4
  ret i32 %5
}

; Function Attrs: mustprogress uwtable
define linkonce_odr void @_ZSt8_DestroyIP11QModelIndexEvT_S2_(ptr noundef %0, ptr noundef %1) #0 comdat {
  %3 = alloca ptr, align 8
  %4 = alloca ptr, align 8
  store ptr %0, ptr %3, align 8
  store ptr %1, ptr %4, align 8
  %5 = load ptr, ptr %3, align 8
  %6 = load ptr, ptr %4, align 8
  call void @_ZNSt12_Destroy_auxILb1EE9__destroyIP11QModelIndexEEvT_S4_(ptr noundef %5, ptr noundef %6)
  ret void
}

; Function Attrs: mustprogress nounwind uwtable
define linkonce_odr noundef ptr @_ZN17QArrayDataPointerI11QModelIndexE4dataEv(ptr noundef nonnull align 8 dereferenceable(24) %0) #2 comdat align 2 {
  %2 = alloca ptr, align 8
  store ptr %0, ptr %2, align 8
  %3 = load ptr, ptr %2, align 8
  %4 = getelementptr inbounds %struct.QArrayDataPointer.8, ptr %3, i32 0, i32 1
  %5 = load ptr, ptr %4, align 8
  ret ptr %5
}

; Function Attrs: mustprogress nounwind uwtable
define linkonce_odr noundef zeroext i1 @_ZN19QBasicAtomicIntegerIiE5derefEv(ptr noundef nonnull align 4 dereferenceable(4) %0) #2 comdat align 2 {
  %2 = alloca ptr, align 8
  store ptr %0, ptr %2, align 8
  %3 = load ptr, ptr %2, align 8
  %4 = getelementptr inbounds %class.QBasicAtomicInteger, ptr %3, i32 0, i32 0
  %5 = call noundef zeroext i1 @_ZN10QAtomicOpsIiE5derefIiEEbRSt6atomicIT_E(ptr noundef nonnull align 4 dereferenceable(4) %4) #16
  ret i1 %5
}

; Function Attrs: mustprogress nounwind uwtable
define linkonce_odr void @_ZN6QFlagsIN19QItemSelectionModel13SelectionFlagEEC2E5QFlag(ptr noundef nonnull align 4 dereferenceable(4) %0, i32 %1) unnamed_addr #2 comdat align 2 {
  %3 = alloca %class.QFlag, align 4
  %4 = alloca ptr, align 8
  %5 = getelementptr inbounds %class.QFlag, ptr %3, i32 0, i32 0
  store i32 %1, ptr %5, align 4
  store ptr %0, ptr %4, align 8
  %6 = load ptr, ptr %4, align 8
  %7 = getelementptr inbounds %class.QFlags, ptr %6, i32 0, i32 0
  %8 = call noundef i32 @_ZNK5QFlagcvjEv(ptr noundef nonnull align 4 dereferenceable(4) %3) #16
  store i32 %8, ptr %7, align 4
  ret void
}

; Function Attrs: mustprogress nounwind uwtable
define linkonce_odr void @_ZN5QFlagC2Ej(ptr noundef nonnull align 4 dereferenceable(4) %0, i32 noundef %1) unnamed_addr #2 comdat align 2 {
  %3 = alloca ptr, align 8
  %4 = alloca i32, align 4
  store ptr %0, ptr %3, align 8
  store i32 %1, ptr %4, align 4
  %5 = load ptr, ptr %3, align 8
  %6 = getelementptr inbounds %class.QFlag, ptr %5, i32 0, i32 0
  %7 = load i32, ptr %4, align 4
  store i32 %7, ptr %6, align 4
  ret void
}

; Function Attrs: mustprogress uwtable
define linkonce_odr void @_ZSt7destroyIP11QModelIndexEvT_S2_(ptr noundef %0, ptr noundef %1) #0 comdat {
  %3 = alloca ptr, align 8
  %4 = alloca ptr, align 8
  store ptr %0, ptr %3, align 8
  store ptr %1, ptr %4, align 8
  %5 = load ptr, ptr %3, align 8
  %6 = load ptr, ptr %4, align 8
  call void @_ZSt8_DestroyIP11QModelIndexEvT_S2_(ptr noundef %5, ptr noundef %6)
  ret void
}

; Function Attrs: mustprogress nounwind uwtable
define linkonce_odr noundef ptr @_ZN17QArrayDataPointerI11QModelIndexE3endEv(ptr noundef nonnull align 8 dereferenceable(24) %0) #2 comdat align 2 {
  %2 = alloca ptr, align 8
  store ptr %0, ptr %2, align 8
  %3 = load ptr, ptr %2, align 8
  %4 = call noundef ptr @_ZN17QArrayDataPointerI11QModelIndexE4dataEv(ptr noundef nonnull align 8 dereferenceable(24) %3) #16
  %5 = getelementptr inbounds %struct.QArrayDataPointer.8, ptr %3, i32 0, i32 2
  %6 = load i64, ptr %5, align 8
  %7 = getelementptr %class.QModelIndex, ptr %4, i64 %6
  ret ptr %7
}

; Function Attrs: mustprogress nounwind uwtable
define linkonce_odr noundef ptr @_ZN17QArrayDataPointerI11QModelIndexE5beginEv(ptr noundef nonnull align 8 dereferenceable(24) %0) #2 comdat align 2 {
  %2 = alloca ptr, align 8
  store ptr %0, ptr %2, align 8
  %3 = load ptr, ptr %2, align 8
  %4 = call noundef ptr @_ZN17QArrayDataPointerI11QModelIndexE4dataEv(ptr noundef nonnull align 8 dereferenceable(24) %3) #16
  ret ptr %4
}

; Function Attrs: mustprogress nounwind uwtable
define linkonce_odr noundef zeroext i1 @_ZN10QArrayData5derefEv(ptr noundef nonnull align 8 dereferenceable(16) %0) #2 comdat align 2 {
  %2 = alloca ptr, align 8
  store ptr %0, ptr %2, align 8
  %3 = load ptr, ptr %2, align 8
  %4 = getelementptr inbounds %struct.QArrayData, ptr %3, i32 0, i32 0
  %5 = call noundef zeroext i1 @_ZN19QBasicAtomicIntegerIiE5derefEv(ptr noundef nonnull align 4 dereferenceable(4) %4) #16
  ret i1 %5
}

; Function Attrs: mustprogress nounwind uwtable
define linkonce_odr i32 @_ZNK6QFlagsIN19QItemSelectionModel13SelectionFlagEEorES1_(ptr noundef nonnull align 4 dereferenceable(4) %0, i32 noundef %1) #2 comdat align 2 {
  %3 = alloca %class.QFlags, align 4
  %4 = alloca ptr, align 8
  %5 = alloca i32, align 4
  %6 = alloca %class.QFlag, align 4
  store ptr %0, ptr %4, align 8
  store i32 %1, ptr %5, align 4
  %7 = load ptr, ptr %4, align 8
  %8 = getelementptr inbounds %class.QFlags, ptr %7, i32 0, i32 0
  %9 = load i32, ptr %8, align 4
  %10 = load i32, ptr %5, align 4
  %11 = or i32 %9, %10
  call void @_ZN5QFlagC2Ej(ptr noundef nonnull align 4 dereferenceable(4) %6, i32 noundef %11) #16
  %12 = getelementptr inbounds %class.QFlag, ptr %6, i32 0, i32 0
  %13 = load i32, ptr %12, align 4
  call void @_ZN6QFlagsIN19QItemSelectionModel13SelectionFlagEEC2E5QFlag(ptr noundef nonnull align 4 dereferenceable(4) %3, i32 %13) #16
  %14 = getelementptr inbounds %class.QFlags, ptr %3, i32 0, i32 0
  %15 = load i32, ptr %14, align 4
  ret i32 %15
}

; Function Attrs: mustprogress nounwind uwtable
define linkonce_odr void @_ZN6QFlagsIN19QItemSelectionModel13SelectionFlagEEC2ES1_(ptr noundef nonnull align 4 dereferenceable(4) %0, i32 noundef %1) unnamed_addr #2 comdat align 2 {
  %3 = alloca ptr, align 8
  %4 = alloca i32, align 4
  store ptr %0, ptr %3, align 8
  store i32 %1, ptr %4, align 4
  %5 = load ptr, ptr %3, align 8
  %6 = getelementptr inbounds %class.QFlags, ptr %5, i32 0, i32 0
  %7 = load i32, ptr %4, align 4
  store i32 %7, ptr %6, align 4
  ret void
}

; Function Attrs: noreturn nounwind uwtable
define linkonce_odr hidden void @__clang_call_terminate(ptr noundef %0) #7 comdat {
  %2 = call ptr @__cxa_begin_catch(ptr %0) #16
  call void @_ZSt9terminatev() #19
  unreachable
}

; Function Attrs: mustprogress nounwind uwtable
define linkonce_odr void @_ZN15QTypedArrayDataI11QModelIndexE10deallocateEP10QArrayData(ptr noundef %0) #2 comdat align 2 {
  %2 = alloca ptr, align 8
  store ptr %0, ptr %2, align 8
  %3 = load ptr, ptr %2, align 8
  call void @_ZN10QArrayData10deallocateEPS_xx(ptr noundef %3, i64 noundef 24, i64 noundef 8) #16
  ret void
}

; Function Attrs: mustprogress uwtable
define linkonce_odr void @_ZN9QtPrivate16QGenericArrayOpsI11QModelIndexE10destroyAllEv(ptr noundef nonnull align 8 dereferenceable(24) %0) #0 comdat align 2 {
  %2 = alloca ptr, align 8
  store ptr %0, ptr %2, align 8
  %3 = load ptr, ptr %2, align 8
  %4 = call noundef ptr @_ZN17QArrayDataPointerI11QModelIndexE5beginEv(ptr noundef nonnull align 8 dereferenceable(24) %3) #16
  %5 = call noundef ptr @_ZN17QArrayDataPointerI11QModelIndexE3endEv(ptr noundef nonnull align 8 dereferenceable(24) %3) #16
  call void @_ZSt7destroyIP11QModelIndexEvT_S2_(ptr noundef %4, ptr noundef %5)
  ret void
}

; Function Attrs: mustprogress nounwind uwtable
define linkonce_odr noundef ptr @_ZN17QArrayDataPointerI11QModelIndexEptEv(ptr noundef nonnull align 8 dereferenceable(24) %0) #2 comdat align 2 {
  %2 = alloca ptr, align 8
  store ptr %0, ptr %2, align 8
  %3 = load ptr, ptr %2, align 8
  ret ptr %3
}

; Function Attrs: mustprogress nounwind uwtable
define linkonce_odr noundef zeroext i1 @_ZN17QArrayDataPointerI11QModelIndexE5derefEv(ptr noundef nonnull align 8 dereferenceable(24) %0) #2 comdat align 2 {
  %2 = alloca ptr, align 8
  store ptr %0, ptr %2, align 8
  %3 = load ptr, ptr %2, align 8
  %4 = getelementptr inbounds %struct.QArrayDataPointer.8, ptr %3, i32 0, i32 0
  %5 = load ptr, ptr %4, align 8
  %6 = icmp ne ptr %5, null
  br i1 %6, label %7, label %11

7:                                                ; preds = %1
  %8 = getelementptr inbounds %struct.QArrayDataPointer.8, ptr %3, i32 0, i32 0
  %9 = load ptr, ptr %8, align 8
  %10 = call noundef zeroext i1 @_ZN10QArrayData5derefEv(ptr noundef nonnull align 8 dereferenceable(16) %9) #16
  br label %11

11:                                               ; preds = %7, %1
  %12 = phi i1 [ true, %1 ], [ %10, %7 ]
  ret i1 %12
}

; Function Attrs: mustprogress nounwind uwtable
define linkonce_odr i32 @_ZorN19QItemSelectionModel13SelectionFlagES0_(i32 noundef %0, i32 noundef %1) #2 comdat {
  %3 = alloca %class.QFlags, align 4
  %4 = alloca i32, align 4
  %5 = alloca i32, align 4
  %6 = alloca %class.QFlags, align 4
  store i32 %0, ptr %4, align 4
  store i32 %1, ptr %5, align 4
  %7 = load i32, ptr %4, align 4
  call void @_ZN6QFlagsIN19QItemSelectionModel13SelectionFlagEEC2ES1_(ptr noundef nonnull align 4 dereferenceable(4) %6, i32 noundef %7) #16
  %8 = load i32, ptr %5, align 4
  %9 = call i32 @_ZNK6QFlagsIN19QItemSelectionModel13SelectionFlagEEorES1_(ptr noundef nonnull align 4 dereferenceable(4) %6, i32 noundef %8) #16
  %10 = getelementptr inbounds %class.QFlags, ptr %3, i32 0, i32 0
  store i32 %9, ptr %10, align 4
  %11 = getelementptr inbounds %class.QFlags, ptr %3, i32 0, i32 0
  %12 = load i32, ptr %11, align 4
  ret i32 %12
}

; Function Attrs: mustprogress nounwind uwtable
define linkonce_odr noundef zeroext i1 @_ZNK11QModelIndex7isValidEv(ptr noundef nonnull align 8 dereferenceable(24) %0) #2 comdat align 2 {
  %2 = alloca ptr, align 8
  store ptr %0, ptr %2, align 8
  %3 = load ptr, ptr %2, align 8
  %4 = getelementptr inbounds %class.QModelIndex, ptr %3, i32 0, i32 0
  %5 = load i32, ptr %4, align 8
  %6 = icmp sge i32 %5, 0
  br i1 %6, label %7, label %15

7:                                                ; preds = %1
  %8 = getelementptr inbounds %class.QModelIndex, ptr %3, i32 0, i32 1
  %9 = load i32, ptr %8, align 4
  %10 = icmp sge i32 %9, 0
  br i1 %10, label %11, label %15

11:                                               ; preds = %7
  %12 = getelementptr inbounds %class.QModelIndex, ptr %3, i32 0, i32 3
  %13 = load ptr, ptr %12, align 8
  %14 = icmp ne ptr %13, null
  br label %15

15:                                               ; preds = %11, %7, %1
  %16 = phi i1 [ false, %7 ], [ false, %1 ], [ %14, %11 ]
  ret i1 %16
}

; Function Attrs: mustprogress nounwind uwtable
define linkonce_odr void @_ZN17QArrayDataPointerI11QModelIndexED2Ev(ptr noundef nonnull align 8 dereferenceable(24) %0) unnamed_addr #2 comdat align 2 personality ptr @__gxx_personality_v0 {
  %2 = alloca ptr, align 8
  store ptr %0, ptr %2, align 8
  %3 = load ptr, ptr %2, align 8
  %4 = call noundef zeroext i1 @_ZN17QArrayDataPointerI11QModelIndexE5derefEv(ptr noundef nonnull align 8 dereferenceable(24) %3) #16
  br i1 %4, label %10, label %5

5:                                                ; preds = %1
  %6 = call noundef ptr @_ZN17QArrayDataPointerI11QModelIndexEptEv(ptr noundef nonnull align 8 dereferenceable(24) %3) #16
  invoke void @_ZN9QtPrivate16QGenericArrayOpsI11QModelIndexE10destroyAllEv(ptr noundef nonnull align 8 dereferenceable(24) %6)
          to label %7 unwind label %11

7:                                                ; preds = %5
  %8 = getelementptr inbounds %struct.QArrayDataPointer.8, ptr %3, i32 0, i32 0
  %9 = load ptr, ptr %8, align 8
  call void @_ZN15QTypedArrayDataI11QModelIndexE10deallocateEP10QArrayData(ptr noundef %9) #16
  br label %10

10:                                               ; preds = %7, %1
  ret void

11:                                               ; preds = %5
  %12 = landingpad { ptr, i32 }
          catch ptr null
  %13 = extractvalue { ptr, i32 } %12, 0
  call void @__clang_call_terminate(ptr %13) #19
  unreachable
}

; Function Attrs: mustprogress uwtable
define void @_ZN10PacketList17drawCurrentPacketEv(ptr noundef nonnull align 8 dereferenceable(464) %0) #0 align 2 {
  %2 = alloca ptr, align 8
  %3 = alloca %class.QModelIndex, align 8
  %4 = alloca %class.QFlags, align 4
  store ptr %0, ptr %2, align 8
  %5 = load ptr, ptr %2, align 8
  call void @_ZNK17QAbstractItemView12currentIndexEv(ptr dead_on_unwind writable sret(%class.QModelIndex) align 8 %3, ptr noundef nonnull align 8 dereferenceable(40) %5)
  %6 = call noundef ptr @_ZNK17QAbstractItemView14selectionModelEv(ptr noundef nonnull align 8 dereferenceable(40) %5)
  %7 = icmp ne ptr %6, null
  br i1 %7, label %8, label %20

8:                                                ; preds = %1
  %9 = call noundef zeroext i1 @_ZNK11QModelIndex7isValidEv(ptr noundef nonnull align 8 dereferenceable(24) %3) #16
  br i1 %9, label %10, label %20

10:                                               ; preds = %8
  %11 = call noundef ptr @_ZNK17QAbstractItemView14selectionModelEv(ptr noundef nonnull align 8 dereferenceable(40) %5)
  call void @_ZN19QItemSelectionModel14clearSelectionEv(ptr noundef nonnull align 8 dereferenceable(16) %11)
  %12 = call noundef ptr @_ZNK17QAbstractItemView14selectionModelEv(ptr noundef nonnull align 8 dereferenceable(40) %5)
  %13 = call i32 @_ZorN19QItemSelectionModel13SelectionFlagES0_(i32 noundef 18, i32 noundef 32) #16
  %14 = getelementptr inbounds %class.QFlags, ptr %4, i32 0, i32 0
  store i32 %13, ptr %14, align 4
  %15 = getelementptr inbounds %class.QFlags, ptr %4, i32 0, i32 0
  %16 = load i32, ptr %15, align 4
  %17 = load ptr, ptr %12, align 8
  %18 = getelementptr inbounds ptr, ptr %17, i64 12
  %19 = load ptr, ptr %18, align 8
  call void %19(ptr noundef nonnull align 8 dereferenceable(16) %12, ptr noundef nonnull align 8 dereferenceable(24) %3, i32 %16)
  br label %20

20:                                               ; preds = %10, %8, %1
  ret void
}

; Function Attrs: mustprogress nounwind uwtable
define linkonce_odr void @_ZN5QListI11QModelIndexED2Ev(ptr noundef nonnull align 8 dereferenceable(24) %0) unnamed_addr #2 comdat align 2 {
  %2 = alloca ptr, align 8
  store ptr %0, ptr %2, align 8
  %3 = load ptr, ptr %2, align 8
  %4 = getelementptr inbounds %class.QList.5, ptr %3, i32 0, i32 0
  call void @_ZN17QArrayDataPointerI11QModelIndexED2Ev(ptr noundef nonnull align 8 dereferenceable(24) %4) #16
  ret void
}

; Function Attrs: mustprogress uwtable
define void @_ZN10PacketList25deleteCommentsFromPacketsEv(ptr noundef nonnull align 8 dereferenceable(464) %0) #0 align 2 personality ptr @__gxx_personality_v0 {
  %2 = alloca ptr, align 8
  %3 = alloca %class.QList.5, align 8
  %4 = alloca ptr, align 8
  %5 = alloca i32, align 4
  store ptr %0, ptr %2, align 8
  %6 = load ptr, ptr %2, align 8
  %7 = getelementptr inbounds %class.PacketList, ptr %6, i32 0, i32 4
  %8 = load ptr, ptr %7, align 8
  %9 = icmp ne ptr %8, null
  br i1 %9, label %10, label %14

10:                                               ; preds = %1
  %11 = getelementptr inbounds %class.PacketList, ptr %6, i32 0, i32 1
  %12 = load ptr, ptr %11, align 8
  %13 = icmp ne ptr %12, null
  br i1 %13, label %15, label %14

14:                                               ; preds = %10, %1
  br label %30

15:                                               ; preds = %10
  %16 = call noundef ptr @_ZNK17QAbstractItemView14selectionModelEv(ptr noundef nonnull align 8 dereferenceable(40) %6)
  %17 = icmp ne ptr %16, null
  br i1 %17, label %18, label %30

18:                                               ; preds = %15
  %19 = call noundef ptr @_ZNK17QAbstractItemView14selectionModelEv(ptr noundef nonnull align 8 dereferenceable(40) %6)
  %20 = call noundef zeroext i1 @_ZNK19QItemSelectionModel12hasSelectionEv(ptr noundef nonnull align 8 dereferenceable(16) %19)
  br i1 %20, label %21, label %30

21:                                               ; preds = %18
  %22 = getelementptr inbounds %class.PacketList, ptr %6, i32 0, i32 1
  %23 = load ptr, ptr %22, align 8
  %24 = call noundef ptr @_ZNK17QAbstractItemView14selectionModelEv(ptr noundef nonnull align 8 dereferenceable(40) %6)
  call void @_ZNK19QItemSelectionModel12selectedRowsEi(ptr dead_on_unwind writable sret(%class.QList.5) align 8 %3, ptr noundef nonnull align 8 dereferenceable(16) %24, i32 noundef 0)
  invoke void @_ZN15PacketListModel19deleteFrameCommentsERK5QListI11QModelIndexE(ptr noundef nonnull align 8 dereferenceable(164) %23, ptr noundef nonnull align 8 dereferenceable(24) %3)
          to label %25 unwind label %26

25:                                               ; preds = %21
  call void @_ZN5QListI11QModelIndexED2Ev(ptr noundef nonnull align 8 dereferenceable(24) %3) #16
  call void @_ZN10PacketList17drawCurrentPacketEv(ptr noundef nonnull align 8 dereferenceable(464) %6)
  br label %30

26:                                               ; preds = %21
  %27 = landingpad { ptr, i32 }
          cleanup
  %28 = extractvalue { ptr, i32 } %27, 0
  store ptr %28, ptr %4, align 8
  %29 = extractvalue { ptr, i32 } %27, 1
  store i32 %29, ptr %5, align 4
  call void @_ZN5QListI11QModelIndexED2Ev(ptr noundef nonnull align 8 dereferenceable(24) %3) #16
  br label %31

30:                                               ; preds = %25, %18, %15, %14
  ret void

31:                                               ; preds = %26
  %32 = load ptr, ptr %4, align 8
  %33 = load i32, ptr %5, align 4
  %34 = insertvalue { ptr, i32 } poison, ptr %32, 0
  %35 = insertvalue { ptr, i32 } %34, i32 %33, 1
  resume { ptr, i32 } %35
}