; Function Attrs: mustprogress uwtable
define void @_ZN10PacketList25deleteCommentsFromPacketsEv(ptr noundef nonnull align 8 dereferenceable(464) %0) local_unnamed_addr #0 align 2 personality ptr @__gxx_personality_v0 {
  %2 = alloca %class.QModelIndex, align 8
  %3 = alloca %class.QList.5, align 8
  %4 = getelementptr inbounds i8, ptr %0, i64 64
  %5 = load ptr, ptr %4, align 8
  %.not = icmp eq ptr %5, null
  br i1 %.not, label %44, label %6

6:                                                ; preds = %1
  %7 = getelementptr inbounds i8, ptr %0, i64 40
  %8 = load ptr, ptr %7, align 8
  %.not2 = icmp eq ptr %8, null
  br i1 %.not2, label %44, label %9

9:                                                ; preds = %6
  %10 = tail call noundef ptr @_ZNK17QAbstractItemView14selectionModelEv(ptr noundef nonnull align 8 dereferenceable(40) %0)
  %.not3 = icmp eq ptr %10, null
  br i1 %.not3, label %44, label %11

11:                                               ; preds = %9
  %12 = tail call noundef ptr @_ZNK17QAbstractItemView14selectionModelEv(ptr noundef nonnull align 8 dereferenceable(40) %0)
  %13 = tail call noundef zeroext i1 @_ZNK19QItemSelectionModel12hasSelectionEv(ptr noundef nonnull align 8 dereferenceable(16) %12)
  br i1 %13, label %14, label %44

14:                                               ; preds = %11
  %15 = load ptr, ptr %7, align 8
  %16 = tail call noundef ptr @_ZNK17QAbstractItemView14selectionModelEv(ptr noundef nonnull align 8 dereferenceable(40) %0)
  call void @_ZNK19QItemSelectionModel12selectedRowsEi(ptr dead_on_unwind nonnull writable sret(%class.QList.5) align 8 %3, ptr noundef nonnull align 8 dereferenceable(16) %16, i32 noundef 0)
  invoke void @_ZN15PacketListModel19deleteFrameCommentsERK5QListI11QModelIndexE(ptr noundef nonnull align 8 dereferenceable(164) %15, ptr noundef nonnull align 8 dereferenceable(24) %3)
          to label %17 unwind label %38

17:                                               ; preds = %14
  %18 = load ptr, ptr %3, align 8
  %.not.i.i.i = icmp eq ptr %18, null
  br i1 %.not.i.i.i, label %_ZN5QListI11QModelIndexED2Ev.exit, label %_ZN17QArrayDataPointerI11QModelIndexE5derefEv.exit.i.i

_ZN17QArrayDataPointerI11QModelIndexE5derefEv.exit.i.i: ; preds = %17
  %19 = atomicrmw sub ptr %18, i32 1 seq_cst, align 4
  %.not.i.i = icmp eq i32 %19, 1
  br i1 %.not.i.i, label %20, label %_ZN5QListI11QModelIndexED2Ev.exit

20:                                               ; preds = %_ZN17QArrayDataPointerI11QModelIndexE5derefEv.exit.i.i
  %21 = load ptr, ptr %3, align 8
  call void @_ZN10QArrayData10deallocateEPS_xx(ptr noundef %21, i64 noundef 24, i64 noundef 8) #20
  br label %_ZN5QListI11QModelIndexED2Ev.exit

_ZN5QListI11QModelIndexED2Ev.exit:                ; preds = %17, %_ZN17QArrayDataPointerI11QModelIndexE5derefEv.exit.i.i, %20
  call void @llvm.lifetime.start.p0(i64 24, ptr nonnull %2)
  call void @_ZNK17QAbstractItemView12currentIndexEv(ptr dead_on_unwind nonnull writable sret(%class.QModelIndex) align 8 %2, ptr noundef nonnull align 8 dereferenceable(40) %0)
  %22 = call noundef ptr @_ZNK17QAbstractItemView14selectionModelEv(ptr noundef nonnull align 8 dereferenceable(40) %0)
  %.not.i = icmp eq ptr %22, null
  br i1 %.not.i, label %_ZN10PacketList17drawCurrentPacketEv.exit, label %23

23:                                               ; preds = %_ZN5QListI11QModelIndexED2Ev.exit
  %24 = load i32, ptr %2, align 8
  %25 = icmp sgt i32 %24, -1
  %26 = getelementptr inbounds i8, ptr %2, i64 4
  %27 = load i32, ptr %26, align 4
  %28 = icmp sgt i32 %27, -1
  %or.cond.i.i = select i1 %25, i1 %28, i1 false
  %29 = getelementptr inbounds i8, ptr %2, i64 16
  %30 = load ptr, ptr %29, align 8
  %31 = icmp ne ptr %30, null
  %or.cond.i = select i1 %or.cond.i.i, i1 %31, i1 false
  br i1 %or.cond.i, label %32, label %_ZN10PacketList17drawCurrentPacketEv.exit

32:                                               ; preds = %23
  %33 = call noundef ptr @_ZNK17QAbstractItemView14selectionModelEv(ptr noundef nonnull align 8 dereferenceable(40) %0)
  call void @_ZN19QItemSelectionModel14clearSelectionEv(ptr noundef nonnull align 8 dereferenceable(16) %33)
  %34 = call noundef ptr @_ZNK17QAbstractItemView14selectionModelEv(ptr noundef nonnull align 8 dereferenceable(40) %0)
  %35 = load ptr, ptr %34, align 8
  %36 = getelementptr inbounds i8, ptr %35, i64 96
  %37 = load ptr, ptr %36, align 8
  call void %37(ptr noundef nonnull align 8 dereferenceable(16) %34, ptr noundef nonnull align 8 dereferenceable(24) %2, i32 50)
  br label %_ZN10PacketList17drawCurrentPacketEv.exit

_ZN10PacketList17drawCurrentPacketEv.exit:        ; preds = %_ZN5QListI11QModelIndexED2Ev.exit, %23, %32
  call void @llvm.lifetime.end.p0(i64 24, ptr nonnull %2)
  br label %44

38:                                               ; preds = %14
  %39 = landingpad { ptr, i32 }
          cleanup
  %40 = load ptr, ptr %3, align 8
  %.not.i.i.i4 = icmp eq ptr %40, null
  br i1 %.not.i.i.i4, label %_ZN5QListI11QModelIndexED2Ev.exit7, label %_ZN17QArrayDataPointerI11QModelIndexE5derefEv.exit.i.i5

_ZN17QArrayDataPointerI11QModelIndexE5derefEv.exit.i.i5: ; preds = %38
  %41 = atomicrmw sub ptr %40, i32 1 seq_cst, align 4
  %.not.i.i6 = icmp eq i32 %41, 1
  br i1 %.not.i.i6, label %42, label %_ZN5QListI11QModelIndexED2Ev.exit7

42:                                               ; preds = %_ZN17QArrayDataPointerI11QModelIndexE5derefEv.exit.i.i5
  %43 = load ptr, ptr %3, align 8
  call void @_ZN10QArrayData10deallocateEPS_xx(ptr noundef %43, i64 noundef 24, i64 noundef 8) #20
  br label %_ZN5QListI11QModelIndexED2Ev.exit7

_ZN5QListI11QModelIndexED2Ev.exit7:               ; preds = %38, %_ZN17QArrayDataPointerI11QModelIndexE5derefEv.exit.i.i5, %42
  resume { ptr, i32 } %39

44:                                               ; preds = %1, %6, %_ZN10PacketList17drawCurrentPacketEv.exit, %11, %9
  ret void
}